target datalayout = "e-m:e-p270:32:32-p271:32:32-p272:64:64-i64:64-i128:128-f80:128-n8:16:32:64-S128"
target triple = "x86_64-pc-linux-gnu"

@l_Lean_Compiler_LCNF_instToMessageDataSpecParamInfo___closed__3 = internal global ptr null, align 8
@l_Lean_Compiler_LCNF_instToMessageDataSpecParamInfo___closed__6 = internal global ptr null, align 8
@l_Lean_Compiler_LCNF_instToMessageDataSpecParamInfo___closed__9 = internal global ptr null, align 8
@l_Lean_Compiler_LCNF_instToMessageDataSpecParamInfo___closed__12 = internal global ptr null, align 8
@l_Lean_Compiler_LCNF_instToMessageDataSpecParamInfo___closed__15 = internal global ptr null, align 8

; Function Attrs: nounwind uwtable
define ptr @l_Lean_Compiler_LCNF_instToMessageDataSpecParamInfo(i8 noundef zeroext %0) #2 {
  %2 = alloca ptr, align 8
  %3 = alloca i8, align 1
  %4 = alloca ptr, align 8
  %5 = alloca ptr, align 8
  %6 = alloca ptr, align 8
  %7 = alloca ptr, align 8
  %8 = alloca ptr, align 8
  store i8 %0, ptr %3, align 1, !tbaa !10
  br label %9

9:                                                ; preds = %1
  %10 = load i8, ptr %3, align 1, !tbaa !10
  %11 = zext i8 %10 to i32
  switch i32 %11, label %24 [
    i32 0, label %12
    i32 1, label %15
    i32 2, label %18
    i32 3, label %21
  ]

12:                                               ; preds = %9
  call void @llvm.lifetime.start.p0(i64 8, ptr %4) #7
  %13 = load ptr, ptr @l_Lean_Compiler_LCNF_instToMessageDataSpecParamInfo___closed__3, align 8, !tbaa !8
  store ptr %13, ptr %4, align 8, !tbaa !8
  %14 = load ptr, ptr %4, align 8, !tbaa !8
  store ptr %14, ptr %2, align 8
  call void @llvm.lifetime.end.p0(i64 8, ptr %4) #7
  br label %27

15:                                               ; preds = %9
  call void @llvm.lifetime.start.p0(i64 8, ptr %5) #7
  %16 = load ptr, ptr @l_Lean_Compiler_LCNF_instToMessageDataSpecParamInfo___closed__6, align 8, !tbaa !8
  store ptr %16, ptr %5, align 8, !tbaa !8
  %17 = load ptr, ptr %5, align 8, !tbaa !8
  store ptr %17, ptr %2, align 8
  call void @llvm.lifetime.end.p0(i64 8, ptr %5) #7
  br label %27

18:                                               ; preds = %9
  call void @llvm.lifetime.start.p0(i64 8, ptr %6) #7
  %19 = load ptr, ptr @l_Lean_Compiler_LCNF_instToMessageDataSpecParamInfo___closed__9, align 8, !tbaa !8
  store ptr %19, ptr %6, align 8, !tbaa !8
  %20 = load ptr, ptr %6, align 8, !tbaa !8
  store ptr %20, ptr %2, align 8
  call void @llvm.lifetime.end.p0(i64 8, ptr %6) #7
  br label %27

21:                                               ; preds = %9
  call void @llvm.lifetime.start.p0(i64 8, ptr %7) #7
  %22 = load ptr, ptr @l_Lean_Compiler_LCNF_instToMessageDataSpecParamInfo___closed__12, align 8, !tbaa !8
  store ptr %22, ptr %7, align 8, !tbaa !8
  %23 = load ptr, ptr %7, align 8, !tbaa !8
  store ptr %23, ptr %2, align 8
  call void @llvm.lifetime.end.p0(i64 8, ptr %7) #7
  br label %27

24:                                               ; preds = %9
  call void @llvm.lifetime.start.p0(i64 8, ptr %8) #7
  %25 = load ptr, ptr @l_Lean_Compiler_LCNF_instToMessageDataSpecParamInfo___closed__15, align 8, !tbaa !8
  store ptr %25, ptr %8, align 8, !tbaa !8
  %26 = load ptr, ptr %8, align 8, !tbaa !8
  store ptr %26, ptr %2, align 8
  call void @llvm.lifetime.end.p0(i64 8, ptr %8) #7
  br label %27

27:                                               ; preds = %24, %21, %18, %15, %12
  %28 = load ptr, ptr %2, align 8
  ret ptr %28
}